target datalayout = "e-m:e-p270:32:32-p271:32:32-p272:64:64-i64:64-i128:128-f80:128-n8:16:32:64-S128"
target triple = "x86_64-pc-linux-gnu"

; Function Attrs: nounwind uwtable
define internal i32 @getPixelFormat(i32 noundef %0, i32 noundef %1) #0 {
  %3 = alloca i32, align 4
  %4 = alloca i32, align 4
  %5 = alloca i32, align 4
  store i32 %0, ptr %4, align 4
  store i32 %1, ptr %5, align 4
  %6 = load i32, ptr %4, align 4
  %7 = icmp eq i32 %6, 1
  br i1 %7, label %8, label %9

8:                                                ; preds = %2
  store i32 6, ptr %3, align 4
  br label %38

9:                                                ; preds = %2
  %10 = load i32, ptr %4, align 4
  %11 = icmp eq i32 %10, 3
  br i1 %11, label %12, label %18

12:                                               ; preds = %9
  %13 = load i32, ptr %5, align 4
  %14 = and i32 %13, 1
  %15 = icmp ne i32 %14, 0
  br i1 %15, label %16, label %17

16:                                               ; preds = %12
  store i32 1, ptr %3, align 4
  br label %38

17:                                               ; preds = %12
  store i32 0, ptr %3, align 4
  br label %38

18:                                               ; preds = %9
  %19 = load i32, ptr %4, align 4
  %20 = icmp eq i32 %19, 4
  br i1 %20, label %21, label %37

21:                                               ; preds = %18
  %22 = load i32, ptr %5, align 4
  %23 = and i32 %22, 64
  %24 = icmp ne i32 %23, 0
  br i1 %24, label %25, label %31

25:                                               ; preds = %21
  %26 = load i32, ptr %5, align 4
  %27 = and i32 %26, 1
  %28 = icmp ne i32 %27, 0
  br i1 %28, label %29, label %30

29:                                               ; preds = %25
  store i32 4, ptr %3, align 4
  br label %38

30:                                               ; preds = %25
  store i32 5, ptr %3, align 4
  br label %38

31:                                               ; preds = %21
  %32 = load i32, ptr %5, align 4
  %33 = and i32 %32, 1
  %34 = icmp ne i32 %33, 0
  br i1 %34, label %35, label %36

35:                                               ; preds = %31
  store i32 3, ptr %3, align 4
  br label %38

36:                                               ; preds = %31
  store i32 2, ptr %3, align 4
  br label %38

37:                                               ; preds = %18
  store i32 -1, ptr %3, align 4
  br label %38

38:                                               ; preds = %37, %36, %35, %30, %29, %17, %16, %8
  %39 = load i32, ptr %3, align 4
  ret i32 %39
}

; Function Attrs: nounwind uwtable
define i32 @tjDecompressToYUV(ptr noundef %0, ptr noundef %1, i64 noundef %2, ptr noundef %3, i32 noundef %4) #0 {
  %6 = alloca ptr, align 8
  %7 = alloca ptr, align 8
  %8 = alloca i64, align 8
  %9 = alloca ptr, align 8
  %10 = alloca i32, align 4
  store ptr %0, ptr %6, align 8
  store ptr %1, ptr %7, align 8
  store i64 %2, ptr %8, align 8
  store ptr %3, ptr %9, align 8
  store i32 %4, ptr %10, align 4
  %11 = load ptr, ptr %6, align 8
  %12 = load ptr, ptr %7, align 8
  %13 = load i64, ptr %8, align 8
  %14 = load ptr, ptr %9, align 8
  %15 = load i32, ptr %10, align 4
  %16 = call i32 @tjDecompressToYUV2(ptr noundef %11, ptr noundef %12, i64 noundef %13, ptr noundef %14, i32 noundef 0, i32 noundef 4, i32 noundef 0, i32 noundef %15)
  ret i32 %16
}

; Function Attrs: nounwind uwtable
define i32 @tjDecompress(ptr noundef %0, ptr noundef %1, i64 noundef %2, ptr noundef %3, i32 noundef %4, i32 noundef %5, i32 noundef %6, i32 noundef %7, i32 noundef %8) #0 {
  %10 = alloca i32, align 4
  %11 = alloca ptr, align 8
  %12 = alloca ptr, align 8
  %13 = alloca i64, align 8
  %14 = alloca ptr, align 8
  %15 = alloca i32, align 4
  %16 = alloca i32, align 4
  %17 = alloca i32, align 4
  %18 = alloca i32, align 4
  %19 = alloca i32, align 4
  store ptr %0, ptr %11, align 8
  store ptr %1, ptr %12, align 8
  store i64 %2, ptr %13, align 8
  store ptr %3, ptr %14, align 8
  store i32 %4, ptr %15, align 4
  store i32 %5, ptr %16, align 4
  store i32 %6, ptr %17, align 4
  store i32 %7, ptr %18, align 4
  store i32 %8, ptr %19, align 4
  %20 = load i32, ptr %19, align 4
  %21 = and i32 %20, 512
  %22 = icmp ne i32 %21, 0
  br i1 %22, label %23, label %30

23:                                               ; preds = %9
  %24 = load ptr, ptr %11, align 8
  %25 = load ptr, ptr %12, align 8
  %26 = load i64, ptr %13, align 8
  %27 = load ptr, ptr %14, align 8
  %28 = load i32, ptr %19, align 4
  %29 = call i32 @tjDecompressToYUV(ptr noundef %24, ptr noundef %25, i64 noundef %26, ptr noundef %27, i32 noundef %28)
  store i32 %29, ptr %10, align 4
  br label %43

30:                                               ; preds = %9
  %31 = load ptr, ptr %11, align 8
  %32 = load ptr, ptr %12, align 8
  %33 = load i64, ptr %13, align 8
  %34 = load ptr, ptr %14, align 8
  %35 = load i32, ptr %15, align 4
  %36 = load i32, ptr %16, align 4
  %37 = load i32, ptr %17, align 4
  %38 = load i32, ptr %18, align 4
  %39 = load i32, ptr %19, align 4
  %40 = call i32 @getPixelFormat(i32 noundef %38, i32 noundef %39)
  %41 = load i32, ptr %19, align 4
  %42 = call i32 @tjDecompress2(ptr noundef %31, ptr noundef %32, i64 noundef %33, ptr noundef %34, i32 noundef %35, i32 noundef %36, i32 noundef %37, i32 noundef %40, i32 noundef %41)
  store i32 %42, ptr %10, align 4
  br label %43

43:                                               ; preds = %30, %23
  %44 = load i32, ptr %10, align 4
  ret i32 %44
}