; Function Attrs: nounwind uwtable
define range(i32 -1, 1) i32 @tjDecompress(ptr noundef %0, ptr noundef %1, i64 noundef %2, ptr noundef %3, i32 noundef %4, i32 noundef %5, i32 noundef %6, i32 noundef %7, i32 noundef %8) local_unnamed_addr #0 {
  %10 = and i32 %8, 512
  %.not = icmp eq i32 %10, 0
  br i1 %.not, label %13, label %11

11:                                               ; preds = %9
  %12 = tail call range(i32 -1, 1) i32 @tjDecompressToYUV2(ptr noundef %0, ptr noundef %1, i64 noundef %2, ptr noundef %3, i32 noundef 0, i32 noundef 4, i32 noundef 0, i32 noundef %8)
  br label %23

13:                                               ; preds = %9
  switch i32 %7, label %21 [
    i32 1, label %getPixelFormat.exit
    i32 3, label %14
    i32 4, label %16
  ]

14:                                               ; preds = %13
  %15 = and i32 %8, 1
  br label %getPixelFormat.exit

16:                                               ; preds = %13
  %17 = and i32 %8, 64
  %.not.i = icmp eq i32 %17, 0
  %18 = and i32 %8, 1
  br i1 %.not.i, label %20, label %19

19:                                               ; preds = %16
  %.12.i = xor i32 %18, 5
  br label %getPixelFormat.exit

20:                                               ; preds = %16
  %.13.i = or disjoint i32 %18, 2
  br label %getPixelFormat.exit

21:                                               ; preds = %13
  br label %getPixelFormat.exit

getPixelFormat.exit:                              ; preds = %13, %14, %19, %20, %21
  %.0.i = phi i32 [ -1, %21 ], [ 6, %13 ], [ %15, %14 ], [ %.12.i, %19 ], [ %.13.i, %20 ]
  %22 = tail call i32 @tjDecompress2(ptr noundef %0, ptr noundef %1, i64 noundef %2, ptr noundef %3, i32 noundef %4, i32 noundef %5, i32 noundef %6, i32 noundef %.0.i, i32 noundef %8)
  br label %23

23:                                               ; preds = %getPixelFormat.exit, %11
  %.0 = phi i32 [ %12, %11 ], [ %22, %getPixelFormat.exit ]
  ret i32 %.0
}